ccopy_reg
_reconstructor
p0
(cgoogle.oauth2.credentials
Credentials
p1
c__builtin__
object
p2
Ntp3
Rp4
(dp5
S'_quota_project_id'
p6
NsS'_token_uri'
p7
Vhttps://oauth2.googleapis.com/token
p8
sS'_client_secret'
p9
VrJspbK8137gyWl7KSJ23l_sr
p10
sS'_id_token'
p11
NsS'token'
p12
Vya29.a0Adw1xeVmqYHKTRzdmQcXFPG_8BDzJbGtQddwzAoO1KI1sQi4d4QRnHwNUwwPqI2_E26aL_971wnoZP5G-5JLgA-9CHWTWBURhr-mwn4SHb1URSwoe8_g6dAggCUqpRK9JOkC76pMfMbwfYRgFeSWmi_5eac30L3I60U
p13
sS'_refresh_token'
p14
V1//0hkZNq1EE4H7wCgYIARAAGBESNwF-L9IrwOyRBG_EwUtcMLdozgdvPSCH_LW47ENq7Zm158-SAn88RDBYZW8aIsc6pTPYWLsYyiA
p15
sS'_scopes'
p16
(lp17
S'https://www.googleapis.com/auth/gmail.readonly'
p18
asS'_client_id'
p19
V517656247829-a7a16ns2g6q0i9t9e3bpstv1norgn27r.apps.googleusercontent.com
p20
sS'expiry'
p21
cdatetime
datetime
p22
(S'\x07\xe4\x02\x1d\x03#\x0e\x0e\x8aK'
p23
tp24
Rp25
sb.