ccopy_reg
_reconstructor
p0
(cgoogle.oauth2.credentials
Credentials
p1
c__builtin__
object
p2
Ntp3
Rp4
(dp5
S'_quota_project_id'
p6
NsS'_token_uri'
p7
Vhttps://oauth2.googleapis.com/token
p8
sS'_client_secret'
p9
VrJspbK8137gyWl7KSJ23l_sr
p10
sS'_id_token'
p11
NsS'token'
p12
Vya29.ImDAB4woOMkKUyYxEhWOgU_dR4SUzS3ZZeHHtUW0N0Xb2CGj7R9Zys1AZjewNamHhwt84dTHPKoQpLwJyslDvBRwYNffVD1cPAxVh1K2UxNDX8RfnF1raY-nqPNxzaZMiw8
p13
sS'_refresh_token'
p14
V1//0hkZNq1EE4H7wCgYIARAAGBESNwF-L9IrwOyRBG_EwUtcMLdozgdvPSCH_LW47ENq7Zm158-SAn88RDBYZW8aIsc6pTPYWLsYyiA
p15
sS'_scopes'
p16
(lp17
S'https://www.googleapis.com/auth/gmail.readonly'
p18
asS'_client_id'
p19
V517656247829-a7a16ns2g6q0i9t9e3bpstv1norgn27r.apps.googleusercontent.com
p20
sS'expiry'
p21
cdatetime
datetime
p22
(S'\x07\xe4\x03\x02\x01+\r\x01\x8cZ'
p23
tp24
Rp25
sb.